; Function Attrs: mustprogress noinline uwtable
define hidden noundef ptr @_ZN6google8protobuf5Arena18CreateMaybeMessageIN17opencv_tensorflow12OpDef_ArgDefEJEEEPT_PS1_DpOT0_(ptr noundef %0) local_unnamed_addr #16 align 2 personality ptr @__gxx_personality_v0 {
  %2 = icmp eq ptr %0, null
  br i1 %2, label %_ZN6google8protobuf5Arena14InternalHelperIN17opencv_tensorflow12OpDef_ArgDefEE3NewEv.exit, label %5

_ZN6google8protobuf5Arena14InternalHelperIN17opencv_tensorflow12OpDef_ArgDefEE3NewEv.exit: ; preds = %1
  %3 = tail call noalias noundef nonnull dereferenceable(72) ptr @_Znwm(i64 noundef 72) #22
  %4 = getelementptr inbounds nuw i8, ptr %3, i64 8
  store i64 0, ptr %4, align 8, !tbaa !3
  br label %_ZN6google8protobuf5Arena21CreateMessageInternalIN17opencv_tensorflow12OpDef_ArgDefEEEPT_PS1_.exit

5:                                                ; preds = %1
  %6 = tail call noundef ptr @_ZN6google8protobuf5Arena23AllocateAlignedWithHookEmPKSt9type_info(ptr noundef nonnull align 8 dereferenceable(32) %0, i64 noundef 72, ptr noundef nonnull @_ZTIN17opencv_tensorflow12OpDef_ArgDefE)
  %7 = getelementptr inbounds nuw i8, ptr %6, i64 8
  %8 = ptrtoint ptr %0 to i64
  store i64 %8, ptr %7, align 8, !tbaa !3
  br label %_ZN6google8protobuf5Arena21CreateMessageInternalIN17opencv_tensorflow12OpDef_ArgDefEEEPT_PS1_.exit

_ZN6google8protobuf5Arena21CreateMessageInternalIN17opencv_tensorflow12OpDef_ArgDefEEEPT_PS1_.exit: ; preds = %_ZN6google8protobuf5Arena14InternalHelperIN17opencv_tensorflow12OpDef_ArgDefEE3NewEv.exit, %5
  %.sink = phi ptr [ %3, %_ZN6google8protobuf5Arena14InternalHelperIN17opencv_tensorflow12OpDef_ArgDefEE3NewEv.exit ], [ %6, %5 ]
  store ptr getelementptr inbounds nuw inrange(-16, 152) (i8, ptr @_ZTVN17opencv_tensorflow12OpDef_ArgDefE, i64 16), ptr %.sink, align 8, !tbaa !8
  %9 = getelementptr inbounds nuw i8, ptr %.sink, i64 64
  store i32 0, ptr %9, align 4, !tbaa !10
  %10 = getelementptr inbounds nuw i8, ptr %.sink, i64 16
  store ptr @_ZN6google8protobuf8internal26fixed_address_empty_stringB5cxx11E, ptr %10, align 8, !tbaa !13
  %11 = getelementptr inbounds nuw i8, ptr %.sink, i64 24
  store ptr @_ZN6google8protobuf8internal26fixed_address_empty_stringB5cxx11E, ptr %11, align 8, !tbaa !13
  %12 = getelementptr inbounds nuw i8, ptr %.sink, i64 32
  store ptr @_ZN6google8protobuf8internal26fixed_address_empty_stringB5cxx11E, ptr %12, align 8, !tbaa !13
  %13 = getelementptr inbounds nuw i8, ptr %.sink, i64 40
  store ptr @_ZN6google8protobuf8internal26fixed_address_empty_stringB5cxx11E, ptr %13, align 8, !tbaa !13
  %14 = getelementptr inbounds nuw i8, ptr %.sink, i64 48
  store ptr @_ZN6google8protobuf8internal26fixed_address_empty_stringB5cxx11E, ptr %14, align 8, !tbaa !13
  %15 = getelementptr inbounds nuw i8, ptr %.sink, i64 56
  tail call void @llvm.memset.p0.i64(ptr noundef nonnull align 8 dereferenceable(5) %15, i8 0, i64 5, i1 false)
  ret ptr %.sink
}